target datalayout = "e-m:e-p270:32:32-p271:32:32-p272:64:64-i64:64-i128:128-f80:128-n8:16:32:64-S128"
target triple = "x86_64-unknown-linux-gnu"

%struct.V9fsState = type { %struct.anon, %struct.anon.0, ptr, ptr, %struct.FsContext, ptr, i32, i32, [128 x %struct.V9fsPDU], ptr, %struct.CoRwlock, i32, ptr, %struct.V9fsConf, %struct.stat, i64, %struct.qht, %struct.qht, %struct.qht, i64, i16, i64 }
%struct.anon = type { ptr }
%struct.anon.0 = type { ptr }
%struct.FsContext = type { i32, ptr, i32, ptr, %struct.ExtendedOps, ptr, ptr, i32, i32 }
%struct.ExtendedOps = type { ptr }
%struct.V9fsPDU = type { i32, i16, i8, i8, %struct.CoQueue, ptr, %struct.anon.2, i32 }
%struct.CoQueue = type { %struct.anon.1 }
%struct.anon.1 = type { ptr, ptr }
%struct.anon.2 = type { ptr, ptr }
%struct.CoRwlock = type { %struct.CoMutex, i32, %struct.anon.4 }
%struct.CoMutex = type { i32, ptr, %struct.anon.3, %struct.anon.3, i32, i32, ptr }
%struct.anon.3 = type { ptr }
%struct.anon.4 = type { ptr, ptr }
%struct.V9fsConf = type { ptr, ptr }
%struct.stat = type { i64, i64, i64, i32, i32, i32, i32, i64, i64, i64, i64, %struct.timespec, %struct.timespec, %struct.timespec, [3 x i64] }
%struct.timespec = type { i64, i64 }
%struct.qht = type { ptr, ptr, %struct.QemuMutex, i32 }
%struct.QemuMutex = type { %union.pthread_mutex_t, i8 }
%union.pthread_mutex_t = type { %struct.__pthread_mutex_s }
%struct.__pthread_mutex_s = type { i32, i32, i32, i32, i32, i16, i16, %struct.__pthread_internal_list }
%struct.__pthread_internal_list = type { ptr, ptr }
%struct.V9fsString = type { i16, ptr }
%struct.V9fsQID = type { i8, i32, i64 }
%struct.V9fsDirEnt = type { ptr, ptr, ptr }
%struct.dirent = type { i64, i64, i16, i8, [256 x i8] }

@.str.54 = private unnamed_addr constant [3 x i8] c"%s\00", align 1
@.str.85 = private unnamed_addr constant [5 x i8] c"Qqbs\00", align 1

; Function Attrs: nounwind sspstrong uwtable
define internal void @v9fs_free_dirents(ptr noundef %e) #0 {
entry:
  %e.addr = alloca ptr, align 8
  %next = alloca ptr, align 8
  store ptr %e, ptr %e.addr, align 8
  store ptr null, ptr %next, align 8
  br label %for.cond

for.cond:                                         ; preds = %for.inc, %entry
  %0 = load ptr, ptr %e.addr, align 8
  %tobool = icmp ne ptr %0, null
  br i1 %tobool, label %for.body, label %for.end

for.body:                                         ; preds = %for.cond
  %1 = load ptr, ptr %e.addr, align 8
  %next1 = getelementptr inbounds %struct.V9fsDirEnt, ptr %1, i32 0, i32 2
  %2 = load ptr, ptr %next1, align 8
  store ptr %2, ptr %next, align 8
  %3 = load ptr, ptr %e.addr, align 8
  %dent = getelementptr inbounds %struct.V9fsDirEnt, ptr %3, i32 0, i32 0
  %4 = load ptr, ptr %dent, align 8
  call void @g_free(ptr noundef %4)
  %5 = load ptr, ptr %e.addr, align 8
  %st = getelementptr inbounds %struct.V9fsDirEnt, ptr %5, i32 0, i32 1
  %6 = load ptr, ptr %st, align 8
  call void @g_free(ptr noundef %6)
  %7 = load ptr, ptr %e.addr, align 8
  call void @g_free(ptr noundef %7)
  br label %for.inc

for.inc:                                          ; preds = %for.body
  %8 = load ptr, ptr %next, align 8
  store ptr %8, ptr %e.addr, align 8
  br label %for.cond, !llvm.loop !26

for.end:                                          ; preds = %for.cond
  ret void
}

; Function Attrs: nounwind sspstrong uwtable
define internal void @v9fs_string_init(ptr noundef %str) #0 {
entry:
  %str.addr = alloca ptr, align 8
  store ptr %str, ptr %str.addr, align 8
  %0 = load ptr, ptr %str.addr, align 8
  %data = getelementptr inbounds %struct.V9fsString, ptr %0, i32 0, i32 1
  store ptr null, ptr %data, align 8
  %1 = load ptr, ptr %str.addr, align 8
  %size = getelementptr inbounds %struct.V9fsString, ptr %1, i32 0, i32 0
  store i16 0, ptr %size, align 8
  ret void
}

; Function Attrs: nounwind sspstrong uwtable
define internal i64 @qemu_dirent_off(ptr noundef %dent) #0 {
entry:
  %dent.addr = alloca ptr, align 8
  store ptr %dent, ptr %dent.addr, align 8
  %0 = load ptr, ptr %dent.addr, align 8
  %d_off = getelementptr inbounds %struct.dirent, ptr %0, i32 0, i32 1
  %1 = load i64, ptr %d_off, align 8
  ret i64 %1
}

; Function Attrs: nounwind sspstrong uwtable
define internal i32 @v9fs_do_readdir(ptr noundef %pdu, ptr noundef %fidp, i64 noundef %offset, i32 noundef %max_count) #0 {
entry:
  %retval = alloca i32, align 4
  %pdu.addr = alloca ptr, align 8
  %fidp.addr = alloca ptr, align 8
  %offset.addr = alloca i64, align 8
  %max_count.addr = alloca i32, align 4
  %size = alloca i64, align 8
  %qid = alloca %struct.V9fsQID, align 8
  %name = alloca %struct.V9fsString, align 8
  %len = alloca i32, align 4
  %err = alloca i32, align 4
  %count = alloca i32, align 4
  %off = alloca i64, align 8
  %dent = alloca ptr, align 8
  %st = alloca ptr, align 8
  %entries = alloca ptr, align 8
  %dostat = alloca i8, align 1
  %e = alloca ptr, align 8
  %_a5 = alloca i64, align 8
  %_b6 = alloca i64, align 8
  %tmp = alloca i64, align 8
  store ptr %pdu, ptr %pdu.addr, align 8
  store ptr %fidp, ptr %fidp.addr, align 8
  store i64 %offset, ptr %offset.addr, align 8
  store i32 %max_count, ptr %max_count.addr, align 4
  store i32 0, ptr %err, align 4
  store i32 0, ptr %count, align 4
  store ptr null, ptr %entries, align 8
  %0 = load ptr, ptr %pdu.addr, align 8
  %s = getelementptr inbounds %struct.V9fsPDU, ptr %0, i32 0, i32 5
  %1 = load ptr, ptr %s, align 8
  %ctx = getelementptr inbounds %struct.V9fsState, ptr %1, i32 0, i32 4
  %export_flags = getelementptr inbounds %struct.FsContext, ptr %ctx, i32 0, i32 2
  %2 = load i32, ptr %export_flags, align 8
  %and = and i32 %2, 512
  %tobool = icmp ne i32 %and, 0
  %frombool = zext i1 %tobool to i8
  store i8 %frombool, ptr %dostat, align 1
  %3 = load ptr, ptr %pdu.addr, align 8
  %4 = load ptr, ptr %fidp.addr, align 8
  %5 = load i64, ptr %offset.addr, align 8
  %6 = load i32, ptr %max_count.addr, align 4
  %7 = load i8, ptr %dostat, align 1
  %tobool1 = trunc i8 %7 to i1
  %call = call i32 @v9fs_co_readdir_many(ptr noundef %3, ptr noundef %4, ptr noundef %entries, i64 noundef %5, i32 noundef %6, i1 noundef zeroext %tobool1)
  store i32 %call, ptr %count, align 4
  %8 = load i32, ptr %count, align 4
  %cmp = icmp slt i32 %8, 0
  br i1 %cmp, label %if.then, label %if.end

if.then:                                          ; preds = %entry
  %9 = load i32, ptr %count, align 4
  store i32 %9, ptr %err, align 4
  store i32 0, ptr %count, align 4
  br label %out

if.end:                                           ; preds = %entry
  store i32 0, ptr %count, align 4
  %10 = load ptr, ptr %entries, align 8
  store ptr %10, ptr %e, align 8
  br label %for.cond

for.cond:                                         ; preds = %for.inc, %if.end
  %11 = load ptr, ptr %e, align 8
  %tobool2 = icmp ne ptr %11, null
  br i1 %tobool2, label %for.body, label %for.end

for.body:                                         ; preds = %for.cond
  %12 = load ptr, ptr %e, align 8
  %dent3 = getelementptr inbounds %struct.V9fsDirEnt, ptr %12, i32 0, i32 0
  %13 = load ptr, ptr %dent3, align 8
  store ptr %13, ptr %dent, align 8
  %14 = load ptr, ptr %pdu.addr, align 8
  %s4 = getelementptr inbounds %struct.V9fsPDU, ptr %14, i32 0, i32 5
  %15 = load ptr, ptr %s4, align 8
  %ctx5 = getelementptr inbounds %struct.V9fsState, ptr %15, i32 0, i32 4
  %export_flags6 = getelementptr inbounds %struct.FsContext, ptr %ctx5, i32 0, i32 2
  %16 = load i32, ptr %export_flags6, align 8
  %and7 = and i32 %16, 512
  %tobool8 = icmp ne i32 %and7, 0
  br i1 %tobool8, label %if.then9, label %if.else

if.then9:                                         ; preds = %for.body
  %17 = load ptr, ptr %e, align 8
  %st10 = getelementptr inbounds %struct.V9fsDirEnt, ptr %17, i32 0, i32 1
  %18 = load ptr, ptr %st10, align 8
  store ptr %18, ptr %st, align 8
  %19 = load ptr, ptr %st, align 8
  %tobool11 = icmp ne ptr %19, null
  br i1 %tobool11, label %if.end13, label %if.then12

if.then12:                                        ; preds = %if.then9
  store i32 -1, ptr %err, align 4
  br label %for.end

if.end13:                                         ; preds = %if.then9
  %20 = load ptr, ptr %pdu.addr, align 8
  %21 = load ptr, ptr %st, align 8
  %call14 = call i32 @stat_to_qid(ptr noundef %20, ptr noundef %21, ptr noundef %qid)
  store i32 %call14, ptr %err, align 4
  %22 = load i32, ptr %err, align 4
  %cmp15 = icmp slt i32 %22, 0
  br i1 %cmp15, label %if.then16, label %if.end17

if.then16:                                        ; preds = %if.end13
  br label %for.end

if.end17:                                         ; preds = %if.end13
  br label %if.end19

if.else:                                          ; preds = %for.body
  store i64 8, ptr %_a5, align 8
  store i64 8, ptr %_b6, align 8
  %23 = load i64, ptr %_a5, align 8
  %24 = load i64, ptr %_b6, align 8
  %cmp18 = icmp ult i64 %23, %24
  br i1 %cmp18, label %cond.true, label %cond.false

cond.true:                                        ; preds = %if.else
  %25 = load i64, ptr %_a5, align 8
  br label %cond.end

cond.false:                                       ; preds = %if.else
  %26 = load i64, ptr %_b6, align 8
  br label %cond.end

cond.end:                                         ; preds = %cond.false, %cond.true
  %cond = phi i64 [ %25, %cond.true ], [ %26, %cond.false ]
  store i64 %cond, ptr %tmp, align 8
  %27 = load i64, ptr %tmp, align 8
  store i64 %27, ptr %size, align 8
  %path = getelementptr inbounds %struct.V9fsQID, ptr %qid, i32 0, i32 2
  %28 = load ptr, ptr %dent, align 8
  %d_ino = getelementptr inbounds %struct.dirent, ptr %28, i32 0, i32 0
  %29 = load i64, ptr %size, align 8
  call void @llvm.memcpy.p0.p0.i64(ptr align 8 %path, ptr align 8 %d_ino, i64 %29, i1 false)
  %type = getelementptr inbounds %struct.V9fsQID, ptr %qid, i32 0, i32 0
  store i8 0, ptr %type, align 8
  %version = getelementptr inbounds %struct.V9fsQID, ptr %qid, i32 0, i32 1
  store i32 0, ptr %version, align 4
  br label %if.end19

if.end19:                                         ; preds = %cond.end, %if.end17
  %30 = load ptr, ptr %dent, align 8
  %call20 = call i64 @qemu_dirent_off(ptr noundef %30)
  store i64 %call20, ptr %off, align 8
  call void @v9fs_string_init(ptr noundef %name)
  %31 = load ptr, ptr %dent, align 8
  %d_name = getelementptr inbounds %struct.dirent, ptr %31, i32 0, i32 4
  %arraydecay = getelementptr inbounds [256 x i8], ptr %d_name, i64 0, i64 0
  call void (ptr, ptr, ...) @v9fs_string_sprintf(ptr noundef %name, ptr noundef @.str.54, ptr noundef %arraydecay)
  %32 = load ptr, ptr %pdu.addr, align 8
  %33 = load i32, ptr %count, align 4
  %add = add i32 11, %33
  %conv = sext i32 %add to i64
  %34 = load i64, ptr %off, align 8
  %35 = load ptr, ptr %dent, align 8
  %d_type = getelementptr inbounds %struct.dirent, ptr %35, i32 0, i32 3
  %36 = load i8, ptr %d_type, align 2
  %conv21 = zext i8 %36 to i32
  %call22 = call i64 (ptr, i64, ptr, ...) @pdu_marshal(ptr noundef %32, i64 noundef %conv, ptr noundef @.str.85, ptr noundef %qid, i64 noundef %34, i32 noundef %conv21, ptr noundef %name)
  %conv23 = trunc i64 %call22 to i32
  store i32 %conv23, ptr %len, align 4
  call void @v9fs_string_free(ptr noundef %name)
  %37 = load i32, ptr %len, align 4
  %cmp24 = icmp slt i32 %37, 0
  br i1 %cmp24, label %if.then26, label %if.end27

if.then26:                                        ; preds = %if.end19
  %38 = load i32, ptr %len, align 4
  store i32 %38, ptr %err, align 4
  br label %for.end

if.end27:                                         ; preds = %if.end19
  %39 = load i32, ptr %len, align 4
  %40 = load i32, ptr %count, align 4
  %add28 = add i32 %40, %39
  store i32 %add28, ptr %count, align 4
  br label %for.inc

for.inc:                                          ; preds = %if.end27
  %41 = load ptr, ptr %e, align 8
  %next = getelementptr inbounds %struct.V9fsDirEnt, ptr %41, i32 0, i32 2
  %42 = load ptr, ptr %next, align 8
  store ptr %42, ptr %e, align 8
  br label %for.cond, !llvm.loop !25

for.end:                                          ; preds = %if.then26, %if.then16, %if.then12, %for.cond
  br label %out

out:                                              ; preds = %for.end, %if.then
  %43 = load ptr, ptr %entries, align 8
  call void @v9fs_free_dirents(ptr noundef %43)
  %44 = load i32, ptr %err, align 4
  %cmp29 = icmp slt i32 %44, 0
  br i1 %cmp29, label %if.then31, label %if.end32

if.then31:                                        ; preds = %out
  %45 = load i32, ptr %err, align 4
  store i32 %45, ptr %retval, align 4
  br label %return

if.end32:                                         ; preds = %out
  %46 = load i32, ptr %count, align 4
  store i32 %46, ptr %retval, align 4
  br label %return

return:                                           ; preds = %if.end32, %if.then31
  %47 = load i32, ptr %retval, align 4
  ret i32 %47
}