; Function Attrs: nounwind sspstrong uwtable
define internal i32 @v9fs_do_readdir(ptr noundef %pdu, ptr noundef %fidp, i64 noundef %offset, i32 noundef %max_count) #0 {
entry:
  %qid = alloca %struct.V9fsQID, align 8
  %name = alloca %struct.V9fsString, align 8
  %entries = alloca ptr, align 8
  store ptr null, ptr %entries, align 8
  %s = getelementptr inbounds nuw i8, ptr %pdu, i64 24
  %0 = load ptr, ptr %s, align 8
  %export_flags = getelementptr inbounds nuw i8, ptr %0, i64 48
  %1 = load i32, ptr %export_flags, align 8
  %and = and i32 %1, 512
  %tobool = icmp ne i32 %and, 0
  %call = call i32 @v9fs_co_readdir_many(ptr noundef %pdu, ptr noundef %fidp, ptr noundef nonnull %entries, i64 noundef %offset, i32 noundef %max_count, i1 noundef zeroext %tobool) #24
  %cmp = icmp slt i32 %call, 0
  %.pre33 = load ptr, ptr %entries, align 8
  br i1 %cmp, label %out, label %for.cond.preheader

for.cond.preheader:                               ; preds = %entry
  %tobool2.not23 = icmp eq ptr %.pre33, null
  br i1 %tobool2.not23, label %v9fs_free_dirents.exit.thread, label %for.body.lr.ph

for.body.lr.ph:                                   ; preds = %for.cond.preheader
  %path = getelementptr inbounds nuw i8, ptr %qid, i64 8
  %version = getelementptr inbounds nuw i8, ptr %qid, i64 4
  %data.i = getelementptr inbounds nuw i8, ptr %name, i64 8
  br label %for.body

for.body:                                         ; preds = %for.body.lr.ph, %if.end27
  %e.025 = phi ptr [ %.pre33, %for.body.lr.ph ], [ %e.0, %if.end27 ]
  %count.124 = phi i32 [ 0, %for.body.lr.ph ], [ %add28, %if.end27 ]
  %2 = load ptr, ptr %e.025, align 8
  %3 = load ptr, ptr %s, align 8
  %export_flags6 = getelementptr inbounds nuw i8, ptr %3, i64 48
  %4 = load i32, ptr %export_flags6, align 8
  %and7 = and i32 %4, 512
  %tobool8.not = icmp eq i32 %and7, 0
  br i1 %tobool8.not, label %if.else, label %if.then9

if.then9:                                         ; preds = %for.body
  %st10 = getelementptr inbounds nuw i8, ptr %e.025, i64 8
  %5 = load ptr, ptr %st10, align 8
  %tobool11.not = icmp eq ptr %5, null
  br i1 %tobool11.not, label %out.loopexit, label %if.end13

if.end13:                                         ; preds = %if.then9
  %call14 = call fastcc i32 @stat_to_qid(ptr noundef nonnull %pdu, ptr noundef nonnull %5, ptr noundef nonnull %qid)
  %cmp15 = icmp slt i32 %call14, 0
  br i1 %cmp15, label %out.loopexit, label %if.end19

if.else:                                          ; preds = %for.body
  %6 = load i64, ptr %2, align 8
  store i64 %6, ptr %path, align 8
  store i8 0, ptr %qid, align 8
  store i32 0, ptr %version, align 4
  br label %if.end19

if.end19:                                         ; preds = %if.end13, %if.else
  %7 = getelementptr i8, ptr %2, i64 8
  %.val = load i64, ptr %7, align 8
  store ptr null, ptr %data.i, align 8
  store i16 0, ptr %name, align 8
  %d_name = getelementptr inbounds nuw i8, ptr %2, i64 19
  call void (ptr, ptr, ...) @v9fs_string_sprintf(ptr noundef nonnull %name, ptr noundef nonnull @.str.54, ptr noundef nonnull %d_name) #24
  %add = add i32 %count.124, 11
  %conv = sext i32 %add to i64
  %d_type = getelementptr inbounds nuw i8, ptr %2, i64 18
  %8 = load i8, ptr %d_type, align 2
  %conv21 = zext i8 %8 to i32
  %call22 = call i64 (ptr, i64, ptr, ...) @pdu_marshal(ptr noundef nonnull %pdu, i64 noundef %conv, ptr noundef nonnull @.str.85, ptr noundef nonnull %qid, i64 noundef %.val, i32 noundef %conv21, ptr noundef nonnull %name)
  %conv23 = trunc i64 %call22 to i32
  call void @v9fs_string_free(ptr noundef nonnull %name) #24
  %cmp24 = icmp slt i32 %conv23, 0
  br i1 %cmp24, label %out.loopexit, label %if.end27

if.end27:                                         ; preds = %if.end19
  %add28 = add i32 %count.124, %conv23
  %next = getelementptr inbounds nuw i8, ptr %e.025, i64 16
  %e.0 = load ptr, ptr %next, align 8
  %tobool2.not = icmp eq ptr %e.0, null
  br i1 %tobool2.not, label %out.loopexit, label %for.body, !llvm.loop !35

out.loopexit:                                     ; preds = %if.end19, %if.then9, %if.end27, %if.end13
  %count.0.ph = phi i32 [ %count.124, %if.end19 ], [ %count.124, %if.then9 ], [ %add28, %if.end27 ], [ %count.124, %if.end13 ]
  %err.0.ph = phi i32 [ %conv23, %if.end19 ], [ -1, %if.then9 ], [ 0, %if.end27 ], [ %call14, %if.end13 ]
  %.pre = load ptr, ptr %entries, align 8
  br label %out

out:                                              ; preds = %out.loopexit, %entry
  %9 = phi ptr [ %.pre33, %entry ], [ %.pre, %out.loopexit ]
  %count.0 = phi i32 [ 0, %entry ], [ %count.0.ph, %out.loopexit ]
  %err.0 = phi i32 [ %call, %entry ], [ %err.0.ph, %out.loopexit ]
  %err.0.fr = freeze i32 %err.0
  %tobool.not5.i = icmp eq ptr %9, null
  br i1 %tobool.not5.i, label %v9fs_free_dirents.exit, label %for.body.i

for.body.i:                                       ; preds = %out, %for.body.i
  %e.addr.06.i = phi ptr [ %10, %for.body.i ], [ %9, %out ]
  %next1.i = getelementptr inbounds nuw i8, ptr %e.addr.06.i, i64 16
  %10 = load ptr, ptr %next1.i, align 8
  %11 = load ptr, ptr %e.addr.06.i, align 8
  call void @g_free(ptr noundef %11) #24
  %st.i = getelementptr inbounds nuw i8, ptr %e.addr.06.i, i64 8
  %12 = load ptr, ptr %st.i, align 8
  call void @g_free(ptr noundef %12) #24
  call void @g_free(ptr noundef nonnull %e.addr.06.i) #24
  %tobool.not.i = icmp eq ptr %10, null
  br i1 %tobool.not.i, label %v9fs_free_dirents.exit, label %for.body.i, !llvm.loop !36

v9fs_free_dirents.exit:                           ; preds = %for.body.i, %out
  %cmp29 = icmp slt i32 %err.0.fr, 0
  %spec.select = select i1 %cmp29, i32 %err.0.fr, i32 %count.0
  br label %v9fs_free_dirents.exit.thread

v9fs_free_dirents.exit.thread:                    ; preds = %v9fs_free_dirents.exit, %for.cond.preheader
  %13 = phi i32 [ 0, %for.cond.preheader ], [ %spec.select, %v9fs_free_dirents.exit ]
  ret i32 %13
}